(dp1
S'output'
p2
S"<type 'exceptions.SyntaxError'> Set: no tables selected"
p3
sS'layer'
p4
S'/home/abdu/Downloads/web2py/applications/myblog/controllers/default.py'
p5
sS'code'
p6
S"def index():\n    #posts = db(db.post).selectAll()\n    posts = db().select(db.post.id,db.post.title,orderby=db.post.title)\n    return dict(posts=posts)\n\ndef newpost():\n     form = SQLFORM(db.post).process(next=URL('index'))\n     return dict(form=form)\n\n\ndef new():\n     form = SQLFORM(db.post).process(next=URL('index'))\n     return dict(form=form)\n\ndef show():\n    this_post = db.post(request.args(0,cast=int)) or redirect(URL('index'))\n    comments = db(db.comment(request.args(0,cast=int))).select()\n    return dict(post=this_post,comments=comments)\n\n@auth.requires_login()\ndef editpost():\n    form = db(db.post,session.args[0])\n    this_post = db.post(request.args(0,cast=int)) or redirect(URL('index'))\n    form = SQLFORM(db.post, this_post).process(next = URL('show',args=request.args))\n    return dict(form=form)\n\ndef user():\n     return dict(form=auth())\n\nresponse._vars=response._caller(show)\n"
p7
sS'snapshot'
p8
(dp9
sS'traceback'
p10
S'Traceback (most recent call last):\n  File "/home/abdu/Downloads/web2py/gluon/restricted.py", line 217, in restricted\n    exec ccode in environment\n  File "/home/abdu/Downloads/web2py/applications/myblog/controllers/default.py", line 30, in <module>\n  File "/home/abdu/Downloads/web2py/gluon/globals.py", line 372, in <lambda>\n    self._caller = lambda f: f()\n  File "/home/abdu/Downloads/web2py/applications/myblog/controllers/default.py", line 17, in show\n    comments = db(db.comment(request.args(0,cast=int))).select()\n  File "/home/abdu/Downloads/web2py/gluon/dal.py", line 10111, in select\n    return adapter.select(self.query,fields,attributes)\n  File "/home/abdu/Downloads/web2py/gluon/dal.py", line 2304, in select\n    return super(SQLiteAdapter, self).select(query, fields, attributes)\n  File "/home/abdu/Downloads/web2py/gluon/dal.py", line 1738, in select\n    sql = self._select(query, fields, attributes)\n  File "/home/abdu/Downloads/web2py/gluon/dal.py", line 1585, in _select\n    raise SyntaxError(\'Set: no tables selected\')\nSyntaxError: Set: no tables selected\n'
p11
s.